; Function Attrs: nounwind uwtable
define dso_local void @jq_teardown(ptr noundef captures(none) %0) local_unnamed_addr #0 {
  %2 = load ptr, ptr %0, align 8, !tbaa !71
  %3 = icmp eq ptr %2, null
  br i1 %3, label %11, label %4

4:                                                ; preds = %1
  store ptr null, ptr %0, align 8, !tbaa !71
  tail call fastcc void @jq_reset(ptr noundef nonnull %2)
  %5 = getelementptr inbounds nuw i8, ptr %2, i64 16
  %6 = load ptr, ptr %5, align 8, !tbaa !68
  tail call void @bytecode_free(ptr noundef %6) #13
  store ptr null, ptr %5, align 8, !tbaa !68
  %7 = getelementptr inbounds nuw i8, ptr %2, i64 176
  %8 = load i64, ptr %7, align 8
  %9 = getelementptr inbounds nuw i8, ptr %2, i64 184
  %10 = load ptr, ptr %9, align 8
  tail call void @jv_free(i64 %8, ptr %10) #13
  tail call void @jv_mem_free(ptr noundef nonnull %2) #13
  br label %11

11:                                               ; preds = %1, %4
  ret void
}